target datalayout = "e-m:e-p270:32:32-p271:32:32-p272:64:64-i64:64-i128:128-f80:128-n8:16:32:64-S128"
target triple = "x86_64-unknown-linux-gnu"

%"struct.arith::sls::ineq" = type <{ %class.vector.112, i32, [4 x i8], i64, i64, i32, [4 x i8] }>
%class.vector.112 = type { ptr }

@.str.9 = private unnamed_addr constant [109 x i8] c"generated/home/dtcxzyw/WorkSpace/Projects/compilers/llvm-opt-benchmark/bench/z3/z3/src/sat/smt/arith_sls.cpp\00", align 1
@.str.11 = private unnamed_addr constant [29 x i8] c"UNEXPECTED CODE WAS REACHED.\00", align 1

; Function Attrs: mustprogress uwtable
define hidden noundef i64 @_ZNK5arith3sls3dttEblRKNS0_4ineqE(ptr noundef nonnull align 8 dereferenceable(97) %this, i1 noundef zeroext %sign, i64 noundef %args, ptr noundef nonnull align 8 dereferenceable(36) %ineq) #5 align 2 {
entry:
  %retval = alloca i64, align 8
  %this.addr = alloca ptr, align 8
  %sign.addr = alloca i8, align 1
  %args.addr = alloca i64, align 8
  %ineq.addr = alloca ptr, align 8
  store ptr %this, ptr %this.addr, align 8
  %frombool = zext i1 %sign to i8
  store i8 %frombool, ptr %sign.addr, align 1
  store i64 %args, ptr %args.addr, align 8
  store ptr %ineq, ptr %ineq.addr, align 8
  %0 = load ptr, ptr %ineq.addr, align 8
  %m_op = getelementptr inbounds %"struct.arith::sls::ineq", ptr %0, i32 0, i32 1
  %1 = load i32, ptr %m_op, align 8
  switch i32 %1, label %sw.default [
    i32 1, label %sw.bb
    i32 0, label %sw.bb11
    i32 3, label %sw.bb23
    i32 2, label %sw.bb35
  ]

sw.bb:                                            ; preds = %entry
  %2 = load i8, ptr %sign.addr, align 1
  %tobool = trunc i8 %2 to i1
  br i1 %tobool, label %if.then, label %if.end4

if.then:                                          ; preds = %sw.bb
  %3 = load i64, ptr %args.addr, align 8
  %4 = load ptr, ptr %ineq.addr, align 8
  %m_bound = getelementptr inbounds %"struct.arith::sls::ineq", ptr %4, i32 0, i32 3
  %5 = load i64, ptr %m_bound, align 8
  %cmp = icmp sle i64 %3, %5
  br i1 %cmp, label %if.then2, label %if.end

if.then2:                                         ; preds = %if.then
  %6 = load ptr, ptr %ineq.addr, align 8
  %m_bound3 = getelementptr inbounds %"struct.arith::sls::ineq", ptr %6, i32 0, i32 3
  %7 = load i64, ptr %m_bound3, align 8
  %8 = load i64, ptr %args.addr, align 8
  %sub = sub nsw i64 %7, %8
  %add = add nsw i64 %sub, 1
  store i64 %add, ptr %retval, align 8
  br label %return

if.end:                                           ; preds = %if.then
  store i64 0, ptr %retval, align 8
  br label %return

if.end4:                                          ; preds = %sw.bb
  %9 = load i64, ptr %args.addr, align 8
  %10 = load ptr, ptr %ineq.addr, align 8
  %m_bound5 = getelementptr inbounds %"struct.arith::sls::ineq", ptr %10, i32 0, i32 3
  %11 = load i64, ptr %m_bound5, align 8
  %cmp6 = icmp sle i64 %9, %11
  br i1 %cmp6, label %if.then7, label %if.end8

if.then7:                                         ; preds = %if.end4
  store i64 0, ptr %retval, align 8
  br label %return

if.end8:                                          ; preds = %if.end4
  %12 = load i64, ptr %args.addr, align 8
  %13 = load ptr, ptr %ineq.addr, align 8
  %m_bound9 = getelementptr inbounds %"struct.arith::sls::ineq", ptr %13, i32 0, i32 3
  %14 = load i64, ptr %m_bound9, align 8
  %sub10 = sub nsw i64 %12, %14
  store i64 %sub10, ptr %retval, align 8
  br label %return

sw.bb11:                                          ; preds = %entry
  %15 = load i8, ptr %sign.addr, align 1
  %tobool12 = trunc i8 %15 to i1
  br i1 %tobool12, label %if.then13, label %if.end18

if.then13:                                        ; preds = %sw.bb11
  %16 = load i64, ptr %args.addr, align 8
  %17 = load ptr, ptr %ineq.addr, align 8
  %m_bound14 = getelementptr inbounds %"struct.arith::sls::ineq", ptr %17, i32 0, i32 3
  %18 = load i64, ptr %m_bound14, align 8
  %cmp15 = icmp eq i64 %16, %18
  br i1 %cmp15, label %if.then16, label %if.end17

if.then16:                                        ; preds = %if.then13
  store i64 1, ptr %retval, align 8
  br label %return

if.end17:                                         ; preds = %if.then13
  store i64 0, ptr %retval, align 8
  br label %return

if.end18:                                         ; preds = %sw.bb11
  %19 = load i64, ptr %args.addr, align 8
  %20 = load ptr, ptr %ineq.addr, align 8
  %m_bound19 = getelementptr inbounds %"struct.arith::sls::ineq", ptr %20, i32 0, i32 3
  %21 = load i64, ptr %m_bound19, align 8
  %cmp20 = icmp eq i64 %19, %21
  br i1 %cmp20, label %if.then21, label %if.end22

if.then21:                                        ; preds = %if.end18
  store i64 0, ptr %retval, align 8
  br label %return

if.end22:                                         ; preds = %if.end18
  store i64 1, ptr %retval, align 8
  br label %return

sw.bb23:                                          ; preds = %entry
  %22 = load i8, ptr %sign.addr, align 1
  %tobool24 = trunc i8 %22 to i1
  br i1 %tobool24, label %if.then25, label %if.end30

if.then25:                                        ; preds = %sw.bb23
  %23 = load i64, ptr %args.addr, align 8
  %24 = load ptr, ptr %ineq.addr, align 8
  %m_bound26 = getelementptr inbounds %"struct.arith::sls::ineq", ptr %24, i32 0, i32 3
  %25 = load i64, ptr %m_bound26, align 8
  %cmp27 = icmp eq i64 %23, %25
  br i1 %cmp27, label %if.then28, label %if.end29

if.then28:                                        ; preds = %if.then25
  store i64 0, ptr %retval, align 8
  br label %return

if.end29:                                         ; preds = %if.then25
  store i64 1, ptr %retval, align 8
  br label %return

if.end30:                                         ; preds = %sw.bb23
  %26 = load i64, ptr %args.addr, align 8
  %27 = load ptr, ptr %ineq.addr, align 8
  %m_bound31 = getelementptr inbounds %"struct.arith::sls::ineq", ptr %27, i32 0, i32 3
  %28 = load i64, ptr %m_bound31, align 8
  %cmp32 = icmp eq i64 %26, %28
  br i1 %cmp32, label %if.then33, label %if.end34

if.then33:                                        ; preds = %if.end30
  store i64 1, ptr %retval, align 8
  br label %return

if.end34:                                         ; preds = %if.end30
  store i64 0, ptr %retval, align 8
  br label %return

sw.bb35:                                          ; preds = %entry
  %29 = load i8, ptr %sign.addr, align 1
  %tobool36 = trunc i8 %29 to i1
  br i1 %tobool36, label %if.then37, label %if.end44

if.then37:                                        ; preds = %sw.bb35
  %30 = load i64, ptr %args.addr, align 8
  %31 = load ptr, ptr %ineq.addr, align 8
  %m_bound38 = getelementptr inbounds %"struct.arith::sls::ineq", ptr %31, i32 0, i32 3
  %32 = load i64, ptr %m_bound38, align 8
  %cmp39 = icmp slt i64 %30, %32
  br i1 %cmp39, label %if.then40, label %if.end43

if.then40:                                        ; preds = %if.then37
  %33 = load ptr, ptr %ineq.addr, align 8
  %m_bound41 = getelementptr inbounds %"struct.arith::sls::ineq", ptr %33, i32 0, i32 3
  %34 = load i64, ptr %m_bound41, align 8
  %35 = load i64, ptr %args.addr, align 8
  %sub42 = sub nsw i64 %34, %35
  store i64 %sub42, ptr %retval, align 8
  br label %return

if.end43:                                         ; preds = %if.then37
  store i64 0, ptr %retval, align 8
  br label %return

if.end44:                                         ; preds = %sw.bb35
  %36 = load i64, ptr %args.addr, align 8
  %37 = load ptr, ptr %ineq.addr, align 8
  %m_bound45 = getelementptr inbounds %"struct.arith::sls::ineq", ptr %37, i32 0, i32 3
  %38 = load i64, ptr %m_bound45, align 8
  %cmp46 = icmp slt i64 %36, %38
  br i1 %cmp46, label %if.then47, label %if.end48

if.then47:                                        ; preds = %if.end44
  store i64 0, ptr %retval, align 8
  br label %return

if.end48:                                         ; preds = %if.end44
  %39 = load i64, ptr %args.addr, align 8
  %40 = load ptr, ptr %ineq.addr, align 8
  %m_bound49 = getelementptr inbounds %"struct.arith::sls::ineq", ptr %40, i32 0, i32 3
  %41 = load i64, ptr %m_bound49, align 8
  %sub50 = sub nsw i64 %39, %41
  %add51 = add nsw i64 %sub50, 1
  store i64 %add51, ptr %retval, align 8
  br label %return

sw.default:                                       ; preds = %entry
  call void @_Z26notify_assertion_violationPKciS0_(ptr noundef @.str.9, i32 noundef 194, ptr noundef @.str.11)
  call void @exit(i32 noundef 114) #15
  unreachable

return:                                           ; preds = %if.end48, %if.then47, %if.end43, %if.then40, %if.end34, %if.then33, %if.end29, %if.then28, %if.end22, %if.then21, %if.end17, %if.then16, %if.end8, %if.then7, %if.end, %if.then2
  %42 = load i64, ptr %retval, align 8
  ret i64 %42
}