; Function Attrs: mustprogress uwtable
define hidden noundef i64 @_ZNK5arith3sls3dttEblRKNS0_4ineqE(ptr nocapture noundef nonnull readnone align 8 dereferenceable(97) %this, i1 noundef zeroext %sign, i64 noundef %args, ptr nocapture noundef nonnull readonly align 8 dereferenceable(36) %ineq) local_unnamed_addr #5 align 2 {
entry:
  %m_op = getelementptr inbounds i8, ptr %ineq, i64 8
  %0 = load i32, ptr %m_op, align 8
  switch i32 %0, label %sw.default [
    i32 1, label %sw.bb
    i32 0, label %sw.bb11
    i32 3, label %sw.bb23
    i32 2, label %sw.bb35
  ]

sw.bb:                                            ; preds = %entry
  %m_bound = getelementptr inbounds i8, ptr %ineq, i64 16
  %1 = load i64, ptr %m_bound, align 8
  %cmp.not = icmp slt i64 %1, %args
  br i1 %sign, label %if.then, label %if.end4

if.then:                                          ; preds = %sw.bb
  br i1 %cmp.not, label %return, label %if.then2

if.then2:                                         ; preds = %if.then
  %reass.sub = sub i64 %1, %args
  %add = add i64 %reass.sub, 1
  br label %return

if.end4:                                          ; preds = %sw.bb
  %sub10 = sub nsw i64 %args, %1
  %spec.select = select i1 %cmp.not, i64 %sub10, i64 0
  br label %return

sw.bb11:                                          ; preds = %entry
  %m_bound14 = getelementptr inbounds i8, ptr %ineq, i64 16
  %2 = load i64, ptr %m_bound14, align 8
  br i1 %sign, label %if.then13, label %if.end18

if.then13:                                        ; preds = %sw.bb11
  %cmp15 = icmp eq i64 %2, %args
  %. = zext i1 %cmp15 to i64
  br label %return

if.end18:                                         ; preds = %sw.bb11
  %cmp20 = icmp ne i64 %2, %args
  %.30 = zext i1 %cmp20 to i64
  br label %return

sw.bb23:                                          ; preds = %entry
  %m_bound26 = getelementptr inbounds i8, ptr %ineq, i64 16
  %3 = load i64, ptr %m_bound26, align 8
  br i1 %sign, label %if.then25, label %if.end30

if.then25:                                        ; preds = %sw.bb23
  %cmp27 = icmp ne i64 %3, %args
  %.31 = zext i1 %cmp27 to i64
  br label %return

if.end30:                                         ; preds = %sw.bb23
  %cmp32 = icmp eq i64 %3, %args
  %.32 = zext i1 %cmp32 to i64
  br label %return

sw.bb35:                                          ; preds = %entry
  %m_bound38 = getelementptr inbounds i8, ptr %ineq, i64 16
  %4 = load i64, ptr %m_bound38, align 8
  %cmp39 = icmp sgt i64 %4, %args
  br i1 %sign, label %if.then37, label %if.end44

if.then37:                                        ; preds = %sw.bb35
  %sub42 = sub nsw i64 %4, %args
  %spec.select33 = select i1 %cmp39, i64 %sub42, i64 0
  br label %return

if.end44:                                         ; preds = %sw.bb35
  br i1 %cmp39, label %return, label %if.end48

if.end48:                                         ; preds = %if.end44
  %sub50 = add i64 %args, 1
  %add51 = sub i64 %sub50, %4
  br label %return

sw.default:                                       ; preds = %entry
  tail call void @_Z26notify_assertion_violationPKciS0_(ptr noundef nonnull @.str.9, i32 noundef 194, ptr noundef nonnull @.str.11)
  tail call void @exit(i32 noundef 114) #18
  unreachable

return:                                           ; preds = %if.then37, %if.end4, %if.end44, %if.end30, %if.then25, %if.end18, %if.then13, %if.then, %if.end48, %if.then2
  %retval.0 = phi i64 [ %add51, %if.end48 ], [ %add, %if.then2 ], [ 0, %if.then ], [ %., %if.then13 ], [ %.30, %if.end18 ], [ %.31, %if.then25 ], [ %.32, %if.end30 ], [ 0, %if.end44 ], [ %spec.select, %if.end4 ], [ %spec.select33, %if.then37 ]
  ret i64 %retval.0
}